; Function Attrs: nounwind uwtable
define ptr @l_Lake_InputDirConfig_text___proj___elambda__3(ptr readnone captures(none) %0, i8 noundef zeroext %1, ptr noundef %2) local_unnamed_addr #1 {
  %.val = load i32, ptr %2, align 4, !tbaa !8
  %4 = icmp eq i32 %.val, 1
  br i1 %4, label %5, label %7

5:                                                ; preds = %3
  %6 = getelementptr inbounds nuw i8, ptr %2, i64 24
  store i8 %1, ptr %6, align 1, !tbaa !11
  br label %44

7:                                                ; preds = %3
  %8 = getelementptr inbounds nuw i8, ptr %2, i64 8
  %9 = load ptr, ptr %8, align 8, !tbaa !4
  %10 = getelementptr inbounds nuw i8, ptr %2, i64 16
  %11 = load ptr, ptr %10, align 8, !tbaa !4
  %12 = ptrtoint ptr %11 to i64
  %13 = and i64 %12, 1
  %.not = icmp eq i64 %13, 0
  br i1 %.not, label %14, label %lean_inc.exit17

14:                                               ; preds = %7
  %.val.i = load i32, ptr %11, align 4, !tbaa !8
  %15 = icmp sgt i32 %.val.i, 0
  br i1 %15, label %16, label %18, !prof !12

16:                                               ; preds = %14
  %17 = add nuw i32 %.val.i, 1
  store i32 %17, ptr %11, align 4, !tbaa !8
  br label %lean_inc.exit17

18:                                               ; preds = %14
  %.not.i18 = icmp eq i32 %.val.i, 0
  br i1 %.not.i18, label %lean_inc.exit17, label %19

19:                                               ; preds = %18
  tail call void @lean_inc_ref_cold(ptr noundef nonnull %11) #7
  br label %lean_inc.exit17

lean_inc.exit17:                                  ; preds = %19, %18, %16, %7
  %20 = ptrtoint ptr %9 to i64
  %21 = and i64 %20, 1
  %.not22 = icmp eq i64 %21, 0
  br i1 %.not22, label %22, label %lean_inc.exit

22:                                               ; preds = %lean_inc.exit17
  %.val.i19 = load i32, ptr %9, align 4, !tbaa !8
  %23 = icmp sgt i32 %.val.i19, 0
  br i1 %23, label %24, label %26, !prof !12

24:                                               ; preds = %22
  %25 = add nuw i32 %.val.i19, 1
  store i32 %25, ptr %9, align 4, !tbaa !8
  br label %lean_inc.exit

26:                                               ; preds = %22
  %.not.i20 = icmp eq i32 %.val.i19, 0
  br i1 %.not.i20, label %lean_inc.exit, label %27

27:                                               ; preds = %26
  tail call void @lean_inc_ref_cold(ptr noundef nonnull %9) #7
  br label %lean_inc.exit

lean_inc.exit:                                    ; preds = %27, %26, %24, %lean_inc.exit17
  %28 = ptrtoint ptr %2 to i64
  %29 = and i64 %28, 1
  %.not23 = icmp eq i64 %29, 0
  br i1 %.not23, label %30, label %lean_dec.exit

30:                                               ; preds = %lean_inc.exit
  %31 = load i32, ptr %2, align 4, !tbaa !8
  %32 = icmp sgt i32 %31, 1
  br i1 %32, label %33, label %35, !prof !12

33:                                               ; preds = %30
  %34 = add nsw i32 %31, -1
  store i32 %34, ptr %2, align 4, !tbaa !8
  br label %lean_dec.exit

35:                                               ; preds = %30
  %.not.i = icmp eq i32 %31, 0
  br i1 %.not.i, label %lean_dec.exit, label %36

36:                                               ; preds = %35
  tail call void @lean_dec_ref_cold(ptr noundef nonnull %2) #7
  br label %lean_dec.exit

lean_dec.exit:                                    ; preds = %36, %35, %33, %lean_inc.exit
  tail call void @lean_inc_heartbeat() #7
  %37 = tail call noalias ptr @mi_malloc_small(i64 noundef 32) #7
  %38 = icmp eq ptr %37, null
  br i1 %38, label %39, label %lean_alloc_ctor.exit

39:                                               ; preds = %lean_dec.exit
  tail call void @lean_internal_panic_out_of_memory() #8
  unreachable

lean_alloc_ctor.exit:                             ; preds = %lean_dec.exit
  %40 = getelementptr inbounds nuw i8, ptr %37, i64 4
  %41 = getelementptr inbounds nuw i8, ptr %37, i64 24
  store i64 0, ptr %41, align 8, !tbaa !13
  store i32 1, ptr %37, align 4, !tbaa !8
  store i32 131104, ptr %40, align 4
  %42 = getelementptr inbounds nuw i8, ptr %37, i64 8
  store ptr %9, ptr %42, align 8, !tbaa !4
  %43 = getelementptr inbounds nuw i8, ptr %37, i64 16
  store ptr %11, ptr %43, align 8, !tbaa !4
  store i8 %1, ptr %41, align 1, !tbaa !11
  br label %44

44:                                               ; preds = %lean_alloc_ctor.exit, %5
  %.0 = phi ptr [ %2, %5 ], [ %37, %lean_alloc_ctor.exit ]
  ret ptr %.0
}